; ModuleID = '57/2414.c'
source_filename = "57/2414.c"
target datalayout = "e-m:e-p270:32:32-p271:32:32-p272:64:64-i64:64-f80:128-n8:16:32:64-S128"
target triple = "x86_64-pc-linux-gnu"

@.str = private unnamed_addr constant [3 x i8] c"%d\00", align 1
@.str.1 = private unnamed_addr constant [3 x i8] c"%s\00", align 1
@.str.2 = private unnamed_addr constant [3 x i8] c"er\00", align 1
@.str.3 = private unnamed_addr constant [4 x i8] c"%s\0A\00", align 1
@.str.4 = private unnamed_addr constant [3 x i8] c"ly\00", align 1
@.str.5 = private unnamed_addr constant [4 x i8] c"ing\00", align 1

; Function Attrs: noinline nounwind uwtable
define dso_local i32 @main(i32 %0, i8** %1) #0 {
  %3 = alloca i32, align 4
  %4 = alloca i32, align 4
  %5 = alloca i8**, align 8
  %6 = alloca i32, align 4
  %7 = alloca i32, align 4
  %8 = alloca i32, align 4
  %9 = alloca i32, align 4
  %10 = alloca i32, align 4
  %11 = alloca [4 x i8], align 1
  %12 = alloca [4 x i8], align 1
  %13 = alloca [100 x i8], align 16
  %14 = alloca [100 x i8], align 16
  store i32 0, i32* %3, align 4
  store i32 %0, i32* %4, align 4
  store i8** %1, i8*** %5, align 8
  store i32 0, i32* %9, align 4
  %15 = call i32 (i8*, ...) @__isoc99_scanf(i8* getelementptr inbounds ([3 x i8], [3 x i8]* @.str, i64 0, i64 0), i32* %7)
  store i32 0, i32* %6, align 4
  br label %16

16:                                               ; preds = %185, %2
  %17 = load i32, i32* %6, align 4
  %18 = load i32, i32* %7, align 4
  %19 = icmp slt i32 %17, %18
  br i1 %19, label %20, label %188

20:                                               ; preds = %16
  store i32 0, i32* %9, align 4
  %21 = getelementptr inbounds [100 x i8], [100 x i8]* %13, i64 0, i64 0
  %22 = call i32 (i8*, ...) @__isoc99_scanf(i8* getelementptr inbounds ([3 x i8], [3 x i8]* @.str.1, i64 0, i64 0), i8* %21)
  %23 = getelementptr inbounds [100 x i8], [100 x i8]* %13, i64 0, i64 0
  %24 = call i64 @strlen(i8* %23) #3
  %25 = trunc i64 %24 to i32
  store i32 %25, i32* %10, align 4
  %26 = load i32, i32* %10, align 4
  %27 = sub nsw i32 %26, 2
  %28 = sext i32 %27 to i64
  %29 = getelementptr inbounds [100 x i8], [100 x i8]* %13, i64 0, i64 %28
  %30 = load i8, i8* %29, align 1
  %31 = sext i8 %30 to i32
  %32 = icmp eq i32 %31, 101
  br i1 %32, label %41, label %33

33:                                               ; preds = %20
  %34 = load i32, i32* %10, align 4
  %35 = sub nsw i32 %34, 2
  %36 = sext i32 %35 to i64
  %37 = getelementptr inbounds [100 x i8], [100 x i8]* %13, i64 0, i64 %36
  %38 = load i8, i8* %37, align 1
  %39 = sext i8 %38 to i32
  %40 = icmp eq i32 %39, 108
  br i1 %40, label %41, label %122

41:                                               ; preds = %33, %20
  %42 = load i32, i32* %10, align 4
  %43 = sub nsw i32 %42, 2
  store i32 %43, i32* %8, align 4
  br label %44

44:                                               ; preds = %61, %41
  %45 = load i32, i32* %8, align 4
  %46 = sext i32 %45 to i64
  %47 = getelementptr inbounds [100 x i8], [100 x i8]* %13, i64 0, i64 %46
  %48 = load i8, i8* %47, align 1
  %49 = sext i8 %48 to i32
  %50 = icmp ne i32 %49, 0
  br i1 %50, label %51, label %64

51:                                               ; preds = %44
  %52 = load i32, i32* %8, align 4
  %53 = sext i32 %52 to i64
  %54 = getelementptr inbounds [100 x i8], [100 x i8]* %13, i64 0, i64 %53
  %55 = load i8, i8* %54, align 1
  %56 = load i32, i32* %9, align 4
  %57 = sext i32 %56 to i64
  %58 = getelementptr inbounds [4 x i8], [4 x i8]* %11, i64 0, i64 %57
  store i8 %55, i8* %58, align 1
  %59 = load i32, i32* %9, align 4
  %60 = add nsw i32 %59, 1
  store i32 %60, i32* %9, align 4
  br label %61

61:                                               ; preds = %51
  %62 = load i32, i32* %8, align 4
  %63 = add nsw i32 %62, 1
  store i32 %63, i32* %8, align 4
  br label %44

64:                                               ; preds = %44
  %65 = load i32, i32* %9, align 4
  %66 = sext i32 %65 to i64
  %67 = getelementptr inbounds [4 x i8], [4 x i8]* %11, i64 0, i64 %66
  store i8 0, i8* %67, align 1
  %68 = getelementptr inbounds [4 x i8], [4 x i8]* %11, i64 0, i64 0
  %69 = call i32 @strcmp(i8* %68, i8* getelementptr inbounds ([3 x i8], [3 x i8]* @.str.2, i64 0, i64 0)) #3
  %70 = icmp eq i32 %69, 0
  br i1 %70, label %71, label %94

71:                                               ; preds = %64
  store i32 0, i32* %8, align 4
  br label %72

72:                                               ; preds = %85, %71
  %73 = load i32, i32* %8, align 4
  %74 = load i32, i32* %10, align 4
  %75 = sub nsw i32 %74, 2
  %76 = icmp slt i32 %73, %75
  br i1 %76, label %77, label %88

77:                                               ; preds = %72
  %78 = load i32, i32* %8, align 4
  %79 = sext i32 %78 to i64
  %80 = getelementptr inbounds [100 x i8], [100 x i8]* %13, i64 0, i64 %79
  %81 = load i8, i8* %80, align 1
  %82 = load i32, i32* %8, align 4
  %83 = sext i32 %82 to i64
  %84 = getelementptr inbounds [100 x i8], [100 x i8]* %14, i64 0, i64 %83
  store i8 %81, i8* %84, align 1
  br label %85

85:                                               ; preds = %77
  %86 = load i32, i32* %8, align 4
  %87 = add nsw i32 %86, 1
  store i32 %87, i32* %8, align 4
  br label %72

88:                                               ; preds = %72
  %89 = load i32, i32* %8, align 4
  %90 = sext i32 %89 to i64
  %91 = getelementptr inbounds [100 x i8], [100 x i8]* %14, i64 0, i64 %90
  store i8 0, i8* %91, align 1
  %92 = getelementptr inbounds [100 x i8], [100 x i8]* %14, i64 0, i64 0
  %93 = call i32 (i8*, ...) @printf(i8* getelementptr inbounds ([4 x i8], [4 x i8]* @.str.3, i64 0, i64 0), i8* %92)
  br label %94

94:                                               ; preds = %88, %64
  %95 = getelementptr inbounds [4 x i8], [4 x i8]* %11, i64 0, i64 0
  %96 = call i32 @strcmp(i8* %95, i8* getelementptr inbounds ([3 x i8], [3 x i8]* @.str.4, i64 0, i64 0)) #3
  %97 = icmp eq i32 %96, 0
  br i1 %97, label %98, label %121

98:                                               ; preds = %94
  store i32 0, i32* %8, align 4
  br label %99

99:                                               ; preds = %112, %98
  %100 = load i32, i32* %8, align 4
  %101 = load i32, i32* %10, align 4
  %102 = sub nsw i32 %101, 2
  %103 = icmp slt i32 %100, %102
  br i1 %103, label %104, label %115

104:                                              ; preds = %99
  %105 = load i32, i32* %8, align 4
  %106 = sext i32 %105 to i64
  %107 = getelementptr inbounds [100 x i8], [100 x i8]* %13, i64 0, i64 %106
  %108 = load i8, i8* %107, align 1
  %109 = load i32, i32* %8, align 4
  %110 = sext i32 %109 to i64
  %111 = getelementptr inbounds [100 x i8], [100 x i8]* %14, i64 0, i64 %110
  store i8 %108, i8* %111, align 1
  br label %112

112:                                              ; preds = %104
  %113 = load i32, i32* %8, align 4
  %114 = add nsw i32 %113, 1
  store i32 %114, i32* %8, align 4
  br label %99

115:                                              ; preds = %99
  %116 = load i32, i32* %8, align 4
  %117 = sext i32 %116 to i64
  %118 = getelementptr inbounds [100 x i8], [100 x i8]* %14, i64 0, i64 %117
  store i8 0, i8* %118, align 1
  %119 = getelementptr inbounds [100 x i8], [100 x i8]* %14, i64 0, i64 0
  %120 = call i32 (i8*, ...) @printf(i8* getelementptr inbounds ([4 x i8], [4 x i8]* @.str.3, i64 0, i64 0), i8* %119)
  br label %121

121:                                              ; preds = %115, %94
  br label %122

122:                                              ; preds = %121, %33
  %123 = load i32, i32* %10, align 4
  %124 = sub nsw i32 %123, 3
  %125 = sext i32 %124 to i64
  %126 = getelementptr inbounds [100 x i8], [100 x i8]* %13, i64 0, i64 %125
  %127 = load i8, i8* %126, align 1
  %128 = sext i8 %127 to i32
  %129 = icmp eq i32 %128, 105
  br i1 %129, label %130, label %184

130:                                              ; preds = %122
  %131 = load i32, i32* %10, align 4
  %132 = sub nsw i32 %131, 3
  store i32 %132, i32* %8, align 4
  br label %133

133:                                              ; preds = %150, %130
  %134 = load i32, i32* %8, align 4
  %135 = sext i32 %134 to i64
  %136 = getelementptr inbounds [100 x i8], [100 x i8]* %13, i64 0, i64 %135
  %137 = load i8, i8* %136, align 1
  %138 = sext i8 %137 to i32
  %139 = icmp ne i32 %138, 0
  br i1 %139, label %140, label %153

140:                                              ; preds = %133
  %141 = load i32, i32* %8, align 4
  %142 = sext i32 %141 to i64
  %143 = getelementptr inbounds [100 x i8], [100 x i8]* %13, i64 0, i64 %142
  %144 = load i8, i8* %143, align 1
  %145 = load i32, i32* %9, align 4
  %146 = sext i32 %145 to i64
  %147 = getelementptr inbounds [4 x i8], [4 x i8]* %12, i64 0, i64 %146
  store i8 %144, i8* %147, align 1
  %148 = load i32, i32* %9, align 4
  %149 = add nsw i32 %148, 1
  store i32 %149, i32* %9, align 4
  br label %150

150:                                              ; preds = %140
  %151 = load i32, i32* %8, align 4
  %152 = add nsw i32 %151, 1
  store i32 %152, i32* %8, align 4
  br label %133

153:                                              ; preds = %133
  %154 = load i32, i32* %9, align 4
  %155 = sext i32 %154 to i64
  %156 = getelementptr inbounds [4 x i8], [4 x i8]* %12, i64 0, i64 %155
  store i8 0, i8* %156, align 1
  %157 = getelementptr inbounds [4 x i8], [4 x i8]* %12, i64 0, i64 0
  %158 = call i32 @strcmp(i8* %157, i8* getelementptr inbounds ([4 x i8], [4 x i8]* @.str.5, i64 0, i64 0)) #3
  %159 = icmp eq i32 %158, 0
  br i1 %159, label %160, label %183

160:                                              ; preds = %153
  store i32 0, i32* %8, align 4
  br label %161

161:                                              ; preds = %174, %160
  %162 = load i32, i32* %8, align 4
  %163 = load i32, i32* %10, align 4
  %164 = sub nsw i32 %163, 3
  %165 = icmp slt i32 %162, %164
  br i1 %165, label %166, label %177

166:                                              ; preds = %161
  %167 = load i32, i32* %8, align 4
  %168 = sext i32 %167 to i64
  %169 = getelementptr inbounds [100 x i8], [100 x i8]* %13, i64 0, i64 %168
  %170 = load i8, i8* %169, align 1
  %171 = load i32, i32* %8, align 4
  %172 = sext i32 %171 to i64
  %173 = getelementptr inbounds [100 x i8], [100 x i8]* %14, i64 0, i64 %172
  store i8 %170, i8* %173, align 1
  br label %174

174:                                              ; preds = %166
  %175 = load i32, i32* %8, align 4
  %176 = add nsw i32 %175, 1
  store i32 %176, i32* %8, align 4
  br label %161

177:                                              ; preds = %161
  %178 = load i32, i32* %8, align 4
  %179 = sext i32 %178 to i64
  %180 = getelementptr inbounds [100 x i8], [100 x i8]* %14, i64 0, i64 %179
  store i8 0, i8* %180, align 1
  %181 = getelementptr inbounds [100 x i8], [100 x i8]* %14, i64 0, i64 0
  %182 = call i32 (i8*, ...) @printf(i8* getelementptr inbounds ([4 x i8], [4 x i8]* @.str.3, i64 0, i64 0), i8* %181)
  br label %183

183:                                              ; preds = %177, %153
  br label %184

184:                                              ; preds = %183, %122
  br label %185

185:                                              ; preds = %184
  %186 = load i32, i32* %6, align 4
  %187 = add nsw i32 %186, 1
  store i32 %187, i32* %6, align 4
  br label %16

188:                                              ; preds = %16
  ret i32 0
}

declare dso_local i32 @__isoc99_scanf(i8*, ...) #1

; Function Attrs: nounwind readonly
declare dso_local i64 @strlen(i8*) #2

; Function Attrs: nounwind readonly
declare dso_local i32 @strcmp(i8*, i8*) #2

declare dso_local i32 @printf(i8*, ...) #1


!llvm.module.flags = !{!0}
!llvm.ident = !{!1}

!0 = !{i32 1, !"wchar_size", i32 4}
!1 = !{!"clang version 10.0.0-4ubuntu1 "}
